target datalayout = "e-m:e-p270:32:32-p271:32:32-p272:64:64-i64:64-i128:128-f80:128-n8:16:32:64-S128"
target triple = "x86_64-pc-linux-gnu"

%struct._xmlNode = type { ptr, i32, ptr, ptr, ptr, ptr, ptr, ptr, ptr, ptr, ptr, ptr, ptr, ptr, i16, i16 }
%struct._zval_struct = type { %union._zend_value, %union.anon, %union.anon.2 }
%union._zend_value = type { i64 }
%union.anon = type { i32 }
%union.anon.2 = type { i32 }

; Function Attrs: nounwind uwtable
define hidden i32 @dom_parent_node_child_element_count(ptr noundef %0, ptr noundef %1) #0 {
  %3 = alloca i32, align 4
  %4 = alloca ptr, align 8
  %5 = alloca ptr, align 8
  %6 = alloca ptr, align 8
  %7 = alloca ptr, align 8
  %8 = alloca i64, align 8
  %9 = alloca ptr, align 8
  store ptr %0, ptr %4, align 8
  store ptr %1, ptr %5, align 8
  store ptr null, ptr %7, align 8
  store i64 0, ptr %8, align 8
  %10 = load ptr, ptr %4, align 8
  %11 = call ptr @dom_object_get_node(ptr noundef %10)
  store ptr %11, ptr %6, align 8
  %12 = load ptr, ptr %6, align 8
  %13 = icmp eq ptr %12, null
  br i1 %13, label %14, label %15

14:                                               ; preds = %2
  call void @php_dom_throw_error(i32 noundef 11, i32 noundef 1)
  store i32 -1, ptr %3, align 4
  br label %48

15:                                               ; preds = %2
  %16 = load ptr, ptr %6, align 8
  %17 = call i32 @dom_node_children_valid(ptr noundef %16)
  %18 = icmp eq i32 %17, 0
  br i1 %18, label %19, label %39

19:                                               ; preds = %15
  %20 = load ptr, ptr %6, align 8
  %21 = getelementptr inbounds %struct._xmlNode, ptr %20, i32 0, i32 3
  %22 = load ptr, ptr %21, align 8
  store ptr %22, ptr %7, align 8
  br label %23

23:                                               ; preds = %34, %19
  %24 = load ptr, ptr %7, align 8
  %25 = icmp ne ptr %24, null
  br i1 %25, label %26, label %38

26:                                               ; preds = %23
  %27 = load ptr, ptr %7, align 8
  %28 = getelementptr inbounds %struct._xmlNode, ptr %27, i32 0, i32 1
  %29 = load i32, ptr %28, align 8
  %30 = icmp eq i32 %29, 1
  br i1 %30, label %31, label %34

31:                                               ; preds = %26
  %32 = load i64, ptr %8, align 8
  %33 = add nsw i64 %32, 1
  store i64 %33, ptr %8, align 8
  br label %34

34:                                               ; preds = %31, %26
  %35 = load ptr, ptr %7, align 8
  %36 = getelementptr inbounds %struct._xmlNode, ptr %35, i32 0, i32 6
  %37 = load ptr, ptr %36, align 8
  store ptr %37, ptr %7, align 8
  br label %23

38:                                               ; preds = %23
  br label %39

39:                                               ; preds = %38, %15
  br label %40

40:                                               ; preds = %39
  %41 = load ptr, ptr %5, align 8
  store ptr %41, ptr %9, align 8
  %42 = load i64, ptr %8, align 8
  %43 = load ptr, ptr %9, align 8
  %44 = getelementptr inbounds %struct._zval_struct, ptr %43, i32 0, i32 0
  store i64 %42, ptr %44, align 8
  %45 = load ptr, ptr %9, align 8
  %46 = getelementptr inbounds %struct._zval_struct, ptr %45, i32 0, i32 1
  store i32 4, ptr %46, align 8
  br label %47

47:                                               ; preds = %40
  store i32 0, ptr %3, align 4
  br label %48

48:                                               ; preds = %47, %14
  %49 = load i32, ptr %3, align 4
  ret i32 %49
}