; Function Attrs: nounwind uwtable
define hidden noundef i32 @dom_parent_node_child_element_count(ptr noundef %0, ptr nocapture noundef writeonly %1) local_unnamed_addr #0 {
  %3 = tail call ptr @dom_object_get_node(ptr noundef %0) #3
  %4 = icmp eq ptr %3, null
  br i1 %4, label %5, label %6

5:                                                ; preds = %2
  tail call void @php_dom_throw_error(i32 noundef 11, i32 noundef 1) #3
  br label %17

6:                                                ; preds = %2
  %7 = tail call i32 @dom_node_children_valid(ptr noundef nonnull %3) #3
  %8 = icmp eq i32 %7, 0
  br i1 %8, label %9, label %.loopexit

9:                                                ; preds = %6
  %10 = getelementptr inbounds i8, ptr %3, i64 24
  %.01315 = load ptr, ptr %10, align 8
  %.not16 = icmp eq ptr %.01315, null
  br i1 %.not16, label %.loopexit, label %.lr.ph

.lr.ph:                                           ; preds = %9, %.lr.ph
  %.01318 = phi ptr [ %.013, %.lr.ph ], [ %.01315, %9 ]
  %.01217 = phi i64 [ %spec.select, %.lr.ph ], [ 0, %9 ]
  %11 = getelementptr inbounds i8, ptr %.01318, i64 8
  %12 = load i32, ptr %11, align 8
  %13 = icmp eq i32 %12, 1
  %14 = zext i1 %13 to i64
  %spec.select = add nuw nsw i64 %.01217, %14
  %15 = getelementptr inbounds i8, ptr %.01318, i64 48
  %.013 = load ptr, ptr %15, align 8
  %.not = icmp eq ptr %.013, null
  br i1 %.not, label %.loopexit, label %.lr.ph

.loopexit:                                        ; preds = %.lr.ph, %9, %6
  %.2 = phi i64 [ 0, %6 ], [ 0, %9 ], [ %spec.select, %.lr.ph ]
  store i64 %.2, ptr %1, align 8
  %16 = getelementptr inbounds i8, ptr %1, i64 8
  store i32 4, ptr %16, align 8
  br label %17

17:                                               ; preds = %.loopexit, %5
  %.0 = phi i32 [ -1, %5 ], [ 0, %.loopexit ]
  ret i32 %.0
}